target datalayout = "e-m:e-p270:32:32-p271:32:32-p272:64:64-i64:64-i128:128-f80:128-n8:16:32:64-S128"
target triple = "x86_64-pc-linux-gnu"

%struct.ident_t = type { i32, i32, i32, i32, ptr }
%class.SortedTreeNodes = type { ptr, i32, ptr }
%class.Octree = type <{ ptr, ptr, %class.SortedTreeNodes, i32, i32, i32, [4 x i8], double, double, i32, [4 x i8] }>
%struct.DenseNodeData = type { i64, ptr }

@1 = private unnamed_addr constant %struct.ident_t { i32 0, i32 514, i32 0, i32 22, ptr @0 }, align 8

; Function Attrs: mustprogress nounwind uwtable
define linkonce_odr noundef i32 @_ZNK15SortedTreeNodes3endEi(ptr noundef nonnull align 8 dereferenceable(24) %0, i32 noundef %1) #4 comdat align 2 {
  %3 = alloca ptr, align 8
  %4 = alloca i32, align 4
  store ptr %0, ptr %3, align 8
  store i32 %1, ptr %4, align 4
  %5 = load ptr, ptr %3, align 8
  %6 = getelementptr inbounds %class.SortedTreeNodes, ptr %5, i32 0, i32 0
  %7 = load ptr, ptr %6, align 8
  %8 = load i32, ptr %4, align 4
  %9 = sext i32 %8 to i64
  %10 = getelementptr inbounds ptr, ptr %7, i64 %9
  %11 = load ptr, ptr %10, align 8
  %12 = load i32, ptr %4, align 4
  %13 = zext i32 %12 to i64
  %14 = shl i64 1, %13
  %15 = getelementptr inbounds i32, ptr %11, i64 %14
  %16 = load i32, ptr %15, align 4
  ret i32 %16
}

; Function Attrs: mustprogress nounwind uwtable
define linkonce_odr noundef i32 @_ZNK6OctreeIfE14_localToGlobalEi(ptr noundef nonnull align 8 dereferenceable(76) %0, i32 noundef %1) #4 comdat align 2 {
  %3 = alloca ptr, align 8
  %4 = alloca i32, align 4
  store ptr %0, ptr %3, align 8
  store i32 %1, ptr %4, align 4
  %5 = load ptr, ptr %3, align 8
  %6 = load i32, ptr %4, align 4
  %7 = getelementptr inbounds %class.Octree, ptr %5, i32 0, i32 5
  %8 = load i32, ptr %7, align 8
  %9 = add nsw i32 %6, %8
  ret i32 %9
}

; Function Attrs: noreturn nounwind uwtable
define linkonce_odr hidden void @__clang_call_terminate(ptr noundef %0) #9 comdat {
  %2 = call ptr @__cxa_begin_catch(ptr %0) #3
  call void @_ZSt9terminatev() #27
  unreachable
}

; Function Attrs: mustprogress nounwind uwtable
define linkonce_odr noundef nonnull align 4 dereferenceable(4) ptr @_ZN13DenseNodeDataIfLi2EEixEi(ptr noundef nonnull align 8 dereferenceable(16) %0, i32 noundef %1) #4 comdat align 2 {
  %3 = alloca ptr, align 8
  %4 = alloca i32, align 4
  store ptr %0, ptr %3, align 8
  store i32 %1, ptr %4, align 4
  %5 = load ptr, ptr %3, align 8
  %6 = getelementptr inbounds %struct.DenseNodeData, ptr %5, i32 0, i32 1
  %7 = load ptr, ptr %6, align 8
  %8 = load i32, ptr %4, align 4
  %9 = sext i32 %8 to i64
  %10 = getelementptr inbounds float, ptr %7, i64 %9
  ret ptr %10
}

; Function Attrs: mustprogress uwtable
define linkonce_odr noundef i32 @_ZNK6OctreeIfE10_sNodesEndEi(ptr noundef nonnull align 8 dereferenceable(76) %0, i32 noundef %1) #5 comdat align 2 {
  %3 = alloca ptr, align 8
  %4 = alloca i32, align 4
  store ptr %0, ptr %3, align 8
  store i32 %1, ptr %4, align 4
  %5 = load ptr, ptr %3, align 8
  %6 = getelementptr inbounds %class.Octree, ptr %5, i32 0, i32 2
  %7 = load i32, ptr %4, align 4
  %8 = call noundef i32 @_ZNK6OctreeIfE14_localToGlobalEi(ptr noundef nonnull align 8 dereferenceable(76) %5, i32 noundef %7)
  %9 = call noundef i32 @_ZNK15SortedTreeNodes3endEi(ptr noundef nonnull align 8 dereferenceable(24) %6, i32 noundef %8)
  ret i32 %9
}

; Function Attrs: norecurse nounwind uwtable
define internal void @_ZN6OctreeIfE18_addFEMConstraintsILi2EL12BoundaryType2ELi2ELS2_2E22FEMVFConstraintFunctorILi2ELS2_2ELi2ELS2_2EEK14SparseNodeDataI7Point3DIfELi2EES7_S6_IdEEEvRKT3_RKT4_R13DenseNodeDataIfXT_EEi.omp_outlined.82(ptr noalias noundef %0, ptr noalias noundef %1, ptr noundef nonnull align 4 dereferenceable(4) %2, ptr noundef %3, ptr noundef nonnull align 8 dereferenceable(16) %4, ptr noundef nonnull align 8 dereferenceable(16) %5) #17 personality ptr @__gxx_personality_v0 {
  %7 = alloca ptr, align 8
  %8 = alloca ptr, align 8
  %9 = alloca ptr, align 8
  %10 = alloca ptr, align 8
  %11 = alloca ptr, align 8
  %12 = alloca ptr, align 8
  %13 = alloca ptr, align 8
  %14 = alloca ptr, align 8
  %15 = alloca i32, align 4
  %16 = alloca i32, align 4
  %17 = alloca i32, align 4
  %18 = alloca i32, align 4
  %19 = alloca i32, align 4
  %20 = alloca i32, align 4
  %21 = alloca i32, align 4
  %22 = alloca i32, align 4
  %23 = alloca i32, align 4
  store ptr %0, ptr %7, align 8
  store ptr %1, ptr %8, align 8
  store ptr %2, ptr %9, align 8
  store ptr %3, ptr %10, align 8
  store ptr %4, ptr %11, align 8
  store ptr %5, ptr %12, align 8
  %24 = load ptr, ptr %9, align 8
  %25 = load ptr, ptr %10, align 8
  %26 = load ptr, ptr %11, align 8
  %27 = load ptr, ptr %12, align 8
  store ptr %26, ptr %13, align 8
  store ptr %27, ptr %14, align 8
  %28 = load i32, ptr %24, align 4
  %29 = sub nsw i32 %28, 1
  %30 = invoke noundef i32 @_ZNK6OctreeIfE10_sNodesEndEi(ptr noundef nonnull align 8 dereferenceable(76) %25, i32 noundef %29)
          to label %31 unwind label %78

31:                                               ; preds = %6
  store i32 %30, ptr %16, align 4
  %32 = load i32, ptr %16, align 4
  %33 = sub nsw i32 %32, 0
  %34 = sdiv i32 %33, 1
  %35 = sub nsw i32 %34, 1
  store i32 %35, ptr %17, align 4
  store i32 0, ptr %18, align 4
  %36 = load i32, ptr %16, align 4
  %37 = icmp slt i32 0, %36
  br i1 %37, label %38, label %77

38:                                               ; preds = %31
  store i32 0, ptr %19, align 4
  %39 = load i32, ptr %17, align 4
  store i32 %39, ptr %20, align 4
  store i32 1, ptr %21, align 4
  store i32 0, ptr %22, align 4
  %40 = load ptr, ptr %7, align 8
  %41 = load i32, ptr %40, align 4
  call void @__kmpc_for_static_init_4(ptr @1, i32 %41, i32 34, ptr %22, ptr %19, ptr %20, ptr %21, i32 1, i32 1)
  %42 = load i32, ptr %20, align 4
  %43 = load i32, ptr %17, align 4
  %44 = icmp sgt i32 %42, %43
  br i1 %44, label %45, label %47

45:                                               ; preds = %38
  %46 = load i32, ptr %17, align 4
  br label %49

47:                                               ; preds = %38
  %48 = load i32, ptr %20, align 4
  br label %49

49:                                               ; preds = %47, %45
  %50 = phi i32 [ %46, %45 ], [ %48, %47 ]
  store i32 %50, ptr %20, align 4
  %51 = load i32, ptr %19, align 4
  store i32 %51, ptr %15, align 4
  br label %52

52:                                               ; preds = %70, %49
  %53 = load i32, ptr %15, align 4
  %54 = load i32, ptr %20, align 4
  %55 = icmp sle i32 %53, %54
  br i1 %55, label %56, label %73

56:                                               ; preds = %52
  %57 = load i32, ptr %15, align 4
  %58 = mul nsw i32 %57, 1
  %59 = add nsw i32 0, %58
  store i32 %59, ptr %23, align 4
  %60 = load ptr, ptr %14, align 8
  %61 = load i32, ptr %23, align 4
  %62 = call noundef nonnull align 4 dereferenceable(4) ptr @_ZN13DenseNodeDataIfLi2EEixEi(ptr noundef nonnull align 8 dereferenceable(16) %60, i32 noundef %61)
  %63 = load float, ptr %62, align 4
  %64 = load ptr, ptr %13, align 8
  %65 = load i32, ptr %23, align 4
  %66 = call noundef nonnull align 4 dereferenceable(4) ptr @_ZN13DenseNodeDataIfLi2EEixEi(ptr noundef nonnull align 8 dereferenceable(16) %64, i32 noundef %65)
  %67 = load float, ptr %66, align 4
  %68 = fadd float %67, %63
  store float %68, ptr %66, align 4
  br label %69

69:                                               ; preds = %56
  br label %70

70:                                               ; preds = %69
  %71 = load i32, ptr %15, align 4
  %72 = add nsw i32 %71, 1
  store i32 %72, ptr %15, align 4
  br label %52

73:                                               ; preds = %52
  br label %74

74:                                               ; preds = %73
  %75 = load ptr, ptr %7, align 8
  %76 = load i32, ptr %75, align 4
  call void @__kmpc_for_static_fini(ptr @1, i32 %76)
  br label %77

77:                                               ; preds = %74, %31
  ret void

78:                                               ; preds = %6
  %79 = landingpad { ptr, i32 }
          catch ptr null
  %80 = extractvalue { ptr, i32 } %79, 0
  call void @__clang_call_terminate(ptr %80) #27
  unreachable
}