; Function Attrs: norecurse nounwind uwtable
define internal void @_ZN6OctreeIfE18_addFEMConstraintsILi2EL12BoundaryType2ELi2ELS2_2E22FEMVFConstraintFunctorILi2ELS2_2ELi2ELS2_2EEK14SparseNodeDataI7Point3DIfELi2EES7_S6_IdEEEvRKT3_RKT4_R13DenseNodeDataIfXT_EEi.omp_outlined.82(ptr noalias nocapture noundef readonly %0, ptr noalias nocapture readnone %1, ptr nocapture noundef nonnull readonly align 4 dereferenceable(4) %2, ptr nocapture noundef readonly %3, ptr nocapture noundef nonnull readonly align 8 dereferenceable(16) %4, ptr nocapture noundef nonnull readonly align 8 dereferenceable(16) %5) #23 personality ptr @__gxx_personality_v0 {
  %7 = alloca i32, align 4
  %8 = alloca i32, align 4
  %9 = alloca i32, align 4
  %10 = alloca i32, align 4
  %11 = load i32, ptr %2, align 4
  %12 = add nsw i32 %11, -1
  %13 = getelementptr inbounds i8, ptr %3, i64 16
  %14 = getelementptr inbounds i8, ptr %3, i64 48
  %15 = load i32, ptr %14, align 8
  %16 = add nsw i32 %12, %15
  %17 = load ptr, ptr %13, align 8
  %18 = sext i32 %16 to i64
  %19 = getelementptr inbounds ptr, ptr %17, i64 %18
  %20 = load ptr, ptr %19, align 8
  %21 = zext nneg i32 %16 to i64
  %22 = shl nuw i64 1, %21
  %23 = getelementptr inbounds i32, ptr %20, i64 %22
  %24 = load i32, ptr %23, align 4
  %25 = icmp sgt i32 %24, 0
  br i1 %25, label %26, label %45

26:                                               ; preds = %6
  %27 = add nsw i32 %24, -1
  store i32 0, ptr %7, align 4
  store i32 %27, ptr %8, align 4
  store i32 1, ptr %9, align 4
  store i32 0, ptr %10, align 4
  %28 = load i32, ptr %0, align 4
  call void @__kmpc_for_static_init_4(ptr nonnull @1, i32 %28, i32 34, ptr nonnull %10, ptr nonnull %7, ptr nonnull %8, ptr nonnull %9, i32 1, i32 1)
  %29 = load i32, ptr %8, align 4
  %30 = call i32 @llvm.smin.i32(i32 %29, i32 %27)
  store i32 %30, ptr %8, align 4
  %31 = load i32, ptr %7, align 4
  %.not17 = icmp sgt i32 %31, %30
  br i1 %.not17, label %._crit_edge, label %.lr.ph

.lr.ph:                                           ; preds = %26
  %32 = getelementptr inbounds i8, ptr %5, i64 8
  %33 = getelementptr inbounds i8, ptr %4, i64 8
  %34 = sext i32 %31 to i64
  br label %35

35:                                               ; preds = %.lr.ph, %35
  %indvars.iv = phi i64 [ %34, %.lr.ph ], [ %indvars.iv.next, %35 ]
  %36 = load ptr, ptr %32, align 8
  %37 = getelementptr inbounds float, ptr %36, i64 %indvars.iv
  %38 = load float, ptr %37, align 4
  %39 = load ptr, ptr %33, align 8
  %40 = getelementptr inbounds float, ptr %39, i64 %indvars.iv
  %41 = load float, ptr %40, align 4
  %42 = fadd float %38, %41
  store float %42, ptr %40, align 4
  %indvars.iv.next = add nsw i64 %indvars.iv, 1
  %43 = load i32, ptr %8, align 4
  %44 = sext i32 %43 to i64
  %.not.not = icmp slt i64 %indvars.iv, %44
  br i1 %.not.not, label %35, label %._crit_edge

._crit_edge:                                      ; preds = %35, %26
  call void @__kmpc_for_static_fini(ptr nonnull @1, i32 %28)
  br label %45

45:                                               ; preds = %._crit_edge, %6
  ret void
}